#include <math.h>
#include <stdio.h>
#include <stdlib.h>
#include <string.h>


int main()
{
	int i,j,k,p;
	char a[50],b[50];
	char c[50][50];
	scanf("%s",a);
	scanf("%s",b);
	p=strlen(a);
	for(i=0;i<50;i++)
	{
	 for(j=i;j<p+i;j++)
	 {
		c[i][j-i]=b[j];
     }c[i][p]='\0';
    }
	for(i=0;i<50;i++)
	{
		if(strcmp(a,c[i])==0)
		{printf("%d",i);break;}
    }

}