; ModuleID = '45/2877.c'
source_filename = "45/2877.c"
target datalayout = "e-m:e-p270:32:32-p271:32:32-p272:64:64-i64:64-f80:128-n8:16:32:64-S128"
target triple = "x86_64-pc-linux-gnu"

@.str = private unnamed_addr constant [3 x i8] c"%s\00", align 1
@.str.1 = private unnamed_addr constant [3 x i8] c"%d\00", align 1

; Function Attrs: noinline nounwind uwtable
define dso_local i32 @main() #0 {
  %1 = alloca i32, align 4
  %2 = alloca i32, align 4
  %3 = alloca i32, align 4
  %4 = alloca i32, align 4
  %5 = alloca i32, align 4
  %6 = alloca [50 x i8], align 16
  %7 = alloca [50 x i8], align 16
  %8 = alloca [50 x [50 x i8]], align 16
  store i32 0, i32* %1, align 4
  %9 = getelementptr inbounds [50 x i8], [50 x i8]* %6, i64 0, i64 0
  %10 = call i32 (i8*, ...) @__isoc99_scanf(i8* getelementptr inbounds ([3 x i8], [3 x i8]* @.str, i64 0, i64 0), i8* %9)
  %11 = getelementptr inbounds [50 x i8], [50 x i8]* %7, i64 0, i64 0
  %12 = call i32 (i8*, ...) @__isoc99_scanf(i8* getelementptr inbounds ([3 x i8], [3 x i8]* @.str, i64 0, i64 0), i8* %11)
  %13 = getelementptr inbounds [50 x i8], [50 x i8]* %6, i64 0, i64 0
  %14 = call i64 @strlen(i8* %13) #3
  %15 = trunc i64 %14 to i32
  store i32 %15, i32* %5, align 4
  store i32 0, i32* %2, align 4
  br label %16

16:                                               ; preds = %50, %0
  %17 = load i32, i32* %2, align 4
  %18 = icmp slt i32 %17, 50
  br i1 %18, label %19, label %53

19:                                               ; preds = %16
  %20 = load i32, i32* %2, align 4
  store i32 %20, i32* %3, align 4
  br label %21

21:                                               ; preds = %40, %19
  %22 = load i32, i32* %3, align 4
  %23 = load i32, i32* %5, align 4
  %24 = load i32, i32* %2, align 4
  %25 = add nsw i32 %23, %24
  %26 = icmp slt i32 %22, %25
  br i1 %26, label %27, label %43

27:                                               ; preds = %21
  %28 = load i32, i32* %3, align 4
  %29 = sext i32 %28 to i64
  %30 = getelementptr inbounds [50 x i8], [50 x i8]* %7, i64 0, i64 %29
  %31 = load i8, i8* %30, align 1
  %32 = load i32, i32* %2, align 4
  %33 = sext i32 %32 to i64
  %34 = getelementptr inbounds [50 x [50 x i8]], [50 x [50 x i8]]* %8, i64 0, i64 %33
  %35 = load i32, i32* %3, align 4
  %36 = load i32, i32* %2, align 4
  %37 = sub nsw i32 %35, %36
  %38 = sext i32 %37 to i64
  %39 = getelementptr inbounds [50 x i8], [50 x i8]* %34, i64 0, i64 %38
  store i8 %31, i8* %39, align 1
  br label %40

40:                                               ; preds = %27
  %41 = load i32, i32* %3, align 4
  %42 = add nsw i32 %41, 1
  store i32 %42, i32* %3, align 4
  br label %21

43:                                               ; preds = %21
  %44 = load i32, i32* %2, align 4
  %45 = sext i32 %44 to i64
  %46 = getelementptr inbounds [50 x [50 x i8]], [50 x [50 x i8]]* %8, i64 0, i64 %45
  %47 = load i32, i32* %5, align 4
  %48 = sext i32 %47 to i64
  %49 = getelementptr inbounds [50 x i8], [50 x i8]* %46, i64 0, i64 %48
  store i8 0, i8* %49, align 1
  br label %50

50:                                               ; preds = %43
  %51 = load i32, i32* %2, align 4
  %52 = add nsw i32 %51, 1
  store i32 %52, i32* %2, align 4
  br label %16

53:                                               ; preds = %16
  store i32 0, i32* %2, align 4
  br label %54

54:                                               ; preds = %69, %53
  %55 = load i32, i32* %2, align 4
  %56 = icmp slt i32 %55, 50
  br i1 %56, label %57, label %72

57:                                               ; preds = %54
  %58 = getelementptr inbounds [50 x i8], [50 x i8]* %6, i64 0, i64 0
  %59 = load i32, i32* %2, align 4
  %60 = sext i32 %59 to i64
  %61 = getelementptr inbounds [50 x [50 x i8]], [50 x [50 x i8]]* %8, i64 0, i64 %60
  %62 = getelementptr inbounds [50 x i8], [50 x i8]* %61, i64 0, i64 0
  %63 = call i32 @strcmp(i8* %58, i8* %62) #3
  %64 = icmp eq i32 %63, 0
  br i1 %64, label %65, label %68

65:                                               ; preds = %57
  %66 = load i32, i32* %2, align 4
  %67 = call i32 (i8*, ...) @printf(i8* getelementptr inbounds ([3 x i8], [3 x i8]* @.str.1, i64 0, i64 0), i32 %66)
  br label %72

68:                                               ; preds = %57
  br label %69

69:                                               ; preds = %68
  %70 = load i32, i32* %2, align 4
  %71 = add nsw i32 %70, 1
  store i32 %71, i32* %2, align 4
  br label %54

72:                                               ; preds = %65, %54
  %73 = load i32, i32* %1, align 4
  ret i32 %73
}

declare dso_local i32 @__isoc99_scanf(i8*, ...) #1

; Function Attrs: nounwind readonly
declare dso_local i64 @strlen(i8*) #2

; Function Attrs: nounwind readonly
declare dso_local i32 @strcmp(i8*, i8*) #2

declare dso_local i32 @printf(i8*, ...) #1


!llvm.module.flags = !{!0}
!llvm.ident = !{!1}

!0 = !{i32 1, !"wchar_size", i32 4}
!1 = !{!"clang version 10.0.0-4ubuntu1 "}
